; Function Attrs: nounwind sspstrong uwtable
define internal fastcc void @dregex_fragment_setenc(ptr noundef %0, ptr noundef readonly captures(none) %1, i32 noundef %2) unnamed_addr #0 {
  %4 = getelementptr inbounds nuw i8, ptr %1, i64 32
  %5 = load ptr, ptr %4, align 8, !tbaa !426
  %.not = icmp eq ptr %5, null
  br i1 %.not, label %reg_fragment_setenc.exit, label %6

6:                                                ; preds = %3
  %7 = tail call i32 @rb_reg_fragment_setenc(ptr noundef %0, ptr noundef nonnull %5, i32 noundef %2) #31
  %.not.i = icmp eq i32 %7, 0
  br i1 %.not.i, label %reg_fragment_setenc.exit, label %8

8:                                                ; preds = %6
  %9 = getelementptr i8, ptr %5, i64 8
  %.val.i = load ptr, ptr %9, align 8, !tbaa !447
  %10 = getelementptr i8, ptr %.val.i, i64 8
  %.val.val.i = load ptr, ptr %10, align 8, !tbaa !486
  tail call void (ptr, ptr, ...) @ripper_compile_error(ptr noundef %0, ptr noundef nonnull @.str.681, i32 noundef range(i32 1, 0) %7, ptr noundef %.val.val.i) #31
  br label %reg_fragment_setenc.exit

reg_fragment_setenc.exit:                         ; preds = %8, %6, %3
  %.0.in22 = getelementptr inbounds nuw i8, ptr %1, i64 48
  %.023 = load ptr, ptr %.0.in22, align 8, !tbaa !328
  %.not1624 = icmp eq ptr %.023, null
  br i1 %.not1624, label %._crit_edge, label %.lr.ph

._crit_edge:                                      ; preds = %reg_fragment_setenc.exit21, %reg_fragment_setenc.exit
  ret void

.lr.ph:                                           ; preds = %reg_fragment_setenc.exit, %reg_fragment_setenc.exit21
  %.025 = phi ptr [ %.0, %reg_fragment_setenc.exit21 ], [ %.023, %reg_fragment_setenc.exit ]
  %11 = getelementptr inbounds nuw i8, ptr %.025, i64 32
  %12 = load ptr, ptr %11, align 8, !tbaa !170
  %.val17 = load i64, ptr %12, align 8, !tbaa !61
  %13 = trunc i64 %.val17 to i32
  %14 = lshr i32 %13, 8
  %15 = and i32 %14, 127
  switch i32 %15, label %reg_fragment_setenc.exit21 [
    i32 63, label %16
    i32 64, label %23
  ]

16:                                               ; preds = %.lr.ph
  %17 = getelementptr inbounds nuw i8, ptr %12, i64 32
  %18 = load ptr, ptr %17, align 8, !tbaa !424
  %19 = tail call i32 @rb_reg_fragment_setenc(ptr noundef %0, ptr noundef %18, i32 noundef %2) #31
  %.not.i18 = icmp eq i32 %19, 0
  br i1 %.not.i18, label %reg_fragment_setenc.exit21, label %20

20:                                               ; preds = %16
  %21 = getelementptr i8, ptr %18, i64 8
  %.val.i19 = load ptr, ptr %21, align 8, !tbaa !447
  %22 = getelementptr i8, ptr %.val.i19, i64 8
  %.val.val.i20 = load ptr, ptr %22, align 8, !tbaa !486
  tail call void (ptr, ptr, ...) @ripper_compile_error(ptr noundef %0, ptr noundef nonnull @.str.681, i32 noundef range(i32 1, 0) %19, ptr noundef %.val.val.i20) #31
  br label %reg_fragment_setenc.exit21

23:                                               ; preds = %.lr.ph
  tail call fastcc void @dregex_fragment_setenc(ptr noundef %0, ptr noundef nonnull %12, i32 noundef %2)
  br label %reg_fragment_setenc.exit21

reg_fragment_setenc.exit21:                       ; preds = %.lr.ph, %20, %16, %23
  %.0.in = getelementptr inbounds nuw i8, ptr %.025, i64 48
  %.0 = load ptr, ptr %.0.in, align 8, !tbaa !328
  %.not16 = icmp eq ptr %.0, null
  br i1 %.not16, label %._crit_edge, label %.lr.ph, !llvm.loop !608
}